target datalayout = "e-m:e-p270:32:32-p271:32:32-p272:64:64-i64:64-i128:128-f80:128-n8:16:32:64-S128"
target triple = "x86_64-pc-linux-gnu"

%struct.ForEachState = type { ptr, i32 }
%struct.List = type { i32, i32, i32, ptr, [0 x %union.ListCell] }
%union.ListCell = type { ptr }
%struct.TargetEntry = type { %struct.Expr, ptr, i16, ptr, i32, i32, i16, i8 }
%struct.Expr = type { i32 }

; Function Attrs: nounwind uwtable
define dso_local ptr @tlist_member(ptr noundef %0, ptr noundef %1) #0 {
  %3 = alloca ptr, align 8
  %4 = alloca ptr, align 8
  %5 = alloca ptr, align 8
  %6 = alloca ptr, align 8
  %7 = alloca %struct.ForEachState, align 8
  %8 = alloca i32, align 4
  %9 = alloca ptr, align 8
  store ptr %0, ptr %4, align 8
  store ptr %1, ptr %5, align 8
  call void @llvm.lifetime.start.p0(i64 8, ptr %6) #7
  call void @llvm.lifetime.start.p0(i64 16, ptr %7) #7
  %10 = getelementptr inbounds nuw %struct.ForEachState, ptr %7, i32 0, i32 0
  %11 = load ptr, ptr %5, align 8
  store ptr %11, ptr %10, align 8
  %12 = getelementptr inbounds nuw %struct.ForEachState, ptr %7, i32 0, i32 1
  store i32 0, ptr %12, align 8
  %13 = getelementptr i8, ptr %7, i64 12
  call void @llvm.memset.p0.i64(ptr align 4 %13, i8 0, i64 4, i1 false)
  br label %14

14:                                               ; preds = %54, %2
  %15 = getelementptr inbounds nuw %struct.ForEachState, ptr %7, i32 0, i32 0
  %16 = load ptr, ptr %15, align 8
  %17 = icmp ne ptr %16, null
  br i1 %17, label %18, label %35

18:                                               ; preds = %14
  %19 = getelementptr inbounds nuw %struct.ForEachState, ptr %7, i32 0, i32 1
  %20 = load i32, ptr %19, align 8
  %21 = getelementptr inbounds nuw %struct.ForEachState, ptr %7, i32 0, i32 0
  %22 = load ptr, ptr %21, align 8
  %23 = getelementptr inbounds nuw %struct.List, ptr %22, i32 0, i32 1
  %24 = load i32, ptr %23, align 4
  %25 = icmp slt i32 %20, %24
  br i1 %25, label %26, label %35

26:                                               ; preds = %18
  %27 = getelementptr inbounds nuw %struct.ForEachState, ptr %7, i32 0, i32 0
  %28 = load ptr, ptr %27, align 8
  %29 = getelementptr inbounds nuw %struct.List, ptr %28, i32 0, i32 3
  %30 = load ptr, ptr %29, align 8
  %31 = getelementptr inbounds nuw %struct.ForEachState, ptr %7, i32 0, i32 1
  %32 = load i32, ptr %31, align 8
  %33 = sext i32 %32 to i64
  %34 = getelementptr inbounds %union.ListCell, ptr %30, i64 %33
  store ptr %34, ptr %6, align 8
  br label %36

35:                                               ; preds = %18, %14
  store ptr null, ptr %6, align 8
  br label %36

36:                                               ; preds = %35, %26
  %37 = phi i32 [ 1, %26 ], [ 0, %35 ]
  %38 = icmp ne i32 %37, 0
  br i1 %38, label %40, label %39

39:                                               ; preds = %36
  store i32 2, ptr %8, align 4
  br label %58

40:                                               ; preds = %36
  call void @llvm.lifetime.start.p0(i64 8, ptr %9) #7
  %41 = load ptr, ptr %6, align 8
  %42 = load ptr, ptr %41, align 8
  store ptr %42, ptr %9, align 8
  %43 = load ptr, ptr %4, align 8
  %44 = load ptr, ptr %9, align 8
  %45 = getelementptr inbounds nuw %struct.TargetEntry, ptr %44, i32 0, i32 1
  %46 = load ptr, ptr %45, align 8
  %47 = call zeroext i1 @equal(ptr noundef %43, ptr noundef %46)
  br i1 %47, label %48, label %50

48:                                               ; preds = %40
  %49 = load ptr, ptr %9, align 8
  store ptr %49, ptr %3, align 8
  store i32 1, ptr %8, align 4
  br label %51

50:                                               ; preds = %40
  store i32 0, ptr %8, align 4
  br label %51

51:                                               ; preds = %50, %48
  call void @llvm.lifetime.end.p0(i64 8, ptr %9) #7
  %52 = load i32, ptr %8, align 4
  switch i32 %52, label %58 [
    i32 0, label %53
  ]

53:                                               ; preds = %51
  br label %54

54:                                               ; preds = %53
  %55 = getelementptr inbounds nuw %struct.ForEachState, ptr %7, i32 0, i32 1
  %56 = load i32, ptr %55, align 8
  %57 = add i32 %56, 1
  store i32 %57, ptr %55, align 8
  br label %14, !llvm.loop !4

58:                                               ; preds = %51, %39
  call void @llvm.lifetime.end.p0(i64 16, ptr %7) #7
  %59 = load i32, ptr %8, align 4
  switch i32 %59, label %61 [
    i32 2, label %60
  ]

60:                                               ; preds = %58
  store ptr null, ptr %3, align 8
  store i32 1, ptr %8, align 4
  br label %61

61:                                               ; preds = %60, %58
  call void @llvm.lifetime.end.p0(i64 8, ptr %6) #7
  %62 = load ptr, ptr %3, align 8
  ret ptr %62
}