; Function Attrs: nounwind uwtable
define dso_local ptr @tlist_member(ptr noundef %0, ptr noundef readonly captures(address_is_null) %1) local_unnamed_addr #0 {
  %3 = getelementptr inbounds nuw i8, ptr %1, i64 4
  %.not = icmp eq ptr %1, null
  br i1 %.not, label %._crit_edge24, label %.lr.ph

.lr.ph:                                           ; preds = %2
  %4 = getelementptr inbounds nuw i8, ptr %1, i64 16
  %5 = load i32, ptr %3, align 4
  %6 = icmp sgt i32 %5, 0
  br i1 %6, label %.lr.ph31, label %._crit_edge24

7:                                                ; preds = %.lr.ph31
  %indvars.iv.next = add nuw nsw i64 %indvars.iv, 1
  %8 = load i32, ptr %3, align 4
  %9 = sext i32 %8 to i64
  %10 = icmp slt i64 %indvars.iv.next, %9
  br i1 %10, label %.lr.ph31, label %._crit_edge24

.lr.ph31:                                         ; preds = %.lr.ph, %7
  %indvars.iv = phi i64 [ %indvars.iv.next, %7 ], [ 0, %.lr.ph ]
  %11 = load ptr, ptr %4, align 8
  %12 = getelementptr inbounds nuw %union.ListCell, ptr %11, i64 %indvars.iv
  %13 = load ptr, ptr %12, align 8
  %14 = getelementptr inbounds nuw i8, ptr %13, i64 8
  %15 = load ptr, ptr %14, align 8
  %16 = tail call zeroext i1 @equal(ptr noundef %0, ptr noundef %15) #10
  br i1 %16, label %._crit_edge24, label %7

._crit_edge24:                                    ; preds = %.lr.ph31, %7, %.lr.ph, %2
  %17 = phi ptr [ null, %2 ], [ null, %.lr.ph ], [ null, %7 ], [ %13, %.lr.ph31 ]
  ret ptr %17
}